; Function Attrs: mustprogress nofree norecurse nosync nounwind willreturn memory(argmem: write) uwtable
define void @_ZN5arrow2io18BufferOutputStreamC1Ev(ptr nocapture noundef nonnull writeonly align 8 dereferenceable(56) %this) unnamed_addr #1 align 2 {
entry:
  %0 = getelementptr inbounds i8, ptr %this, i64 56
  %1 = getelementptr inbounds i8, ptr %this, i64 64
  tail call void @llvm.memset.p0.i64(ptr noundef nonnull align 8 dereferenceable(16) %1, i8 0, i64 16, i1 false)
  %mode_.i = getelementptr inbounds i8, ptr %this, i64 80
  store i32 0, ptr %mode_.i, align 8
  store ptr getelementptr inbounds ({ [11 x ptr], [15 x ptr] }, ptr @_ZTVN5arrow2io18BufferOutputStreamE, i64 0, i32 0, i64 3), ptr %this, align 8
  store ptr getelementptr inbounds ({ [11 x ptr], [15 x ptr] }, ptr @_ZTVN5arrow2io18BufferOutputStreamE, i64 0, i32 1, i64 8), ptr %0, align 8
  %buffer_ = getelementptr inbounds i8, ptr %this, i64 8
  %capacity_ = getelementptr inbounds i8, ptr %this, i64 32
  tail call void @llvm.memset.p0.i64(ptr noundef nonnull align 8 dereferenceable(17) %buffer_, i8 0, i64 17, i1 false)
  tail call void @llvm.memset.p0.i64(ptr noundef nonnull align 8 dereferenceable(24) %capacity_, i8 0, i64 24, i1 false)
  ret void
}